; Function Attrs: mustprogress nounwind uwtable
define hidden void @_ZN52java_lang_invoke_MethodHandleNatives_CallSiteContext17serialize_offsetsEP16SerializeClosure(ptr noundef %0) local_unnamed_addr #0 align 2 {
  %2 = load ptr, ptr %0, align 8
  %3 = getelementptr inbounds i8, ptr %2, i64 24
  %4 = load ptr, ptr %3, align 8
  tail call void %4(ptr noundef nonnull align 8 dereferenceable(8) %0, ptr noundef nonnull @_ZN52java_lang_invoke_MethodHandleNatives_CallSiteContext22_vmdependencies_offsetE) #19
  %5 = load ptr, ptr %0, align 8
  %6 = getelementptr inbounds i8, ptr %5, i64 24
  %7 = load ptr, ptr %6, align 8
  tail call void %7(ptr noundef nonnull align 8 dereferenceable(8) %0, ptr noundef nonnull @_ZN52java_lang_invoke_MethodHandleNatives_CallSiteContext20_last_cleanup_offsetE) #19
  ret void
}